; Function Attrs: mustprogress uwtable
define dso_local void @_ZN3url17CanonicalizeQueryEPKtRKNS_9ComponentEPNS_16CharsetConverterEPNS_12CanonOutputTIcEEPS2_(ptr noundef %spec, ptr nocapture noundef nonnull readonly align 4 dereferenceable(8) %query, ptr noundef %converter, ptr noundef %output, ptr nocapture noundef %out_query) local_unnamed_addr #0 {
entry:
  %len.i = getelementptr inbounds i8, ptr %query, i64 4
  %0 = load i32, ptr %len.i, align 4
  %cmp.i = icmp slt i32 %0, 0
  br i1 %cmp.i, label %if.then.i, label %if.end.i

if.then.i:                                        ; preds = %entry
  store i64 -4294967296, ptr %out_query, align 4
  br label %_ZN3url12_GLOBAL__N_119DoCanonicalizeQueryIttEEvPKT_RKNS_9ComponentEPNS_16CharsetConverterEPNS_12CanonOutputTIcEEPS5_.exit

if.end.i:                                         ; preds = %entry
  %cur_len_.i.i = getelementptr inbounds i8, ptr %output, i64 20
  %1 = load i32, ptr %cur_len_.i.i, align 4
  %buffer_len_.i.i = getelementptr inbounds i8, ptr %output, i64 16
  %2 = load i32, ptr %buffer_len_.i.i, align 8
  %cmp.i.i = icmp slt i32 %1, %2
  br i1 %cmp.i.i, label %return.sink.split.i.i, label %if.end.i.i

if.end.i.i:                                       ; preds = %if.end.i
  %cmp.i.i.i = icmp eq i32 %2, 0
  %spec.select = select i1 %cmp.i.i.i, i32 16, i32 %2
  br label %do.body.i.i.i

do.body.i.i.i:                                    ; preds = %if.end.i.i, %if.end.i.i.i
  %new_len.0.i.i.i = phi i32 [ %mul.i.i.i, %if.end.i.i.i ], [ %spec.select, %if.end.i.i ]
  %cmp3.i.i.i = icmp slt i32 %new_len.0.i.i.i, 1073741824
  br i1 %cmp3.i.i.i, label %if.end.i.i.i, label %_ZN3url12CanonOutputTIcE9push_backEc.exit.i

if.end.i.i.i:                                     ; preds = %do.body.i.i.i
  %mul.i.i.i = shl nsw i32 %new_len.0.i.i.i, 1
  %cmp5.i.not.i.i = icmp sgt i32 %mul.i.i.i, %2
  br i1 %cmp5.i.not.i.i, label %if.end5.i.i, label %do.body.i.i.i, !llvm.loop !5

if.end5.i.i:                                      ; preds = %if.end.i.i.i
  %vtable.i.i.i = load ptr, ptr %output, align 8
  %vfn.i.i.i = getelementptr inbounds i8, ptr %vtable.i.i.i, i64 16
  %3 = load ptr, ptr %vfn.i.i.i, align 8
  tail call void %3(ptr noundef nonnull align 8 dereferenceable(24) %output, i32 noundef %mul.i.i.i)
  %4 = load i32, ptr %cur_len_.i.i, align 4
  br label %return.sink.split.i.i

return.sink.split.i.i:                            ; preds = %if.end5.i.i, %if.end.i
  %.sink2.i.i = phi i32 [ %4, %if.end5.i.i ], [ %1, %if.end.i ]
  %.sink.in.i.i = getelementptr inbounds i8, ptr %output, i64 8
  %.sink.i.i = load ptr, ptr %.sink.in.i.i, align 8
  %idxprom8.i.i = sext i32 %.sink2.i.i to i64
  %arrayidx9.i.i = getelementptr inbounds i8, ptr %.sink.i.i, i64 %idxprom8.i.i
  store i8 63, ptr %arrayidx9.i.i, align 1
  %5 = load i32, ptr %cur_len_.i.i, align 4
  %inc11.i.i = add nsw i32 %5, 1
  store i32 %inc11.i.i, ptr %cur_len_.i.i, align 4
  br label %_ZN3url12CanonOutputTIcE9push_backEc.exit.i

_ZN3url12CanonOutputTIcE9push_backEc.exit.i:      ; preds = %do.body.i.i.i, %return.sink.split.i.i
  %6 = phi i32 [ %inc11.i.i, %return.sink.split.i.i ], [ %1, %do.body.i.i.i ]
  store i32 %6, ptr %out_query, align 4
  %query.val.i = load i32, ptr %query, align 4
  %query.val8.i = load i32, ptr %len.i, align 4
  tail call fastcc void @_ZN3url12_GLOBAL__N_124DoConvertToQueryEncodingIttEEvPKT_RKNS_9ComponentEPNS_16CharsetConverterEPNS_12CanonOutputTIcEE(ptr noundef %spec, i32 %query.val.i, i32 %query.val8.i, ptr noundef %converter, ptr noundef nonnull %output)
  %7 = load i32, ptr %cur_len_.i.i, align 4
  %8 = load i32, ptr %out_query, align 4
  %sub.i = sub nsw i32 %7, %8
  %len3.i = getelementptr inbounds i8, ptr %out_query, i64 4
  store i32 %sub.i, ptr %len3.i, align 4
  br label %_ZN3url12_GLOBAL__N_119DoCanonicalizeQueryIttEEvPKT_RKNS_9ComponentEPNS_16CharsetConverterEPNS_12CanonOutputTIcEEPS5_.exit

_ZN3url12_GLOBAL__N_119DoCanonicalizeQueryIttEEvPKT_RKNS_9ComponentEPNS_16CharsetConverterEPNS_12CanonOutputTIcEEPS5_.exit: ; preds = %if.then.i, %_ZN3url12CanonOutputTIcE9push_backEc.exit.i
  ret void
}